target datalayout = "e-m:e-p270:32:32-p271:32:32-p272:64:64-i64:64-i128:128-f80:128-n8:16:32:64-S128"
target triple = "x86_64-pc-linux-gnu"

; Function Attrs: mustprogress uwtable
define hidden noundef zeroext i1 @_ZN2cv3mcc11CChartModel8evaluateERKNS1_12_SUBCCMModelERiS5_Rf(ptr noundef nonnull align 8 dereferenceable(112) %0, ptr noundef nonnull align 8 dereferenceable(128) %1, ptr noundef nonnull align 4 dereferenceable(4) %2, ptr noundef nonnull align 4 dereferenceable(4) %3, ptr noundef nonnull align 4 dereferenceable(4) %4) #6 align 2 {
  %6 = alloca ptr, align 8
  %7 = alloca ptr, align 8
  %8 = alloca ptr, align 8
  %9 = alloca ptr, align 8
  %10 = alloca ptr, align 8
  %11 = alloca float, align 4
  %12 = alloca i32, align 4
  %13 = alloca i32, align 4
  %14 = alloca i8, align 1
  store ptr %0, ptr %6, align 8, !tbaa !13
  store ptr %1, ptr %7, align 8, !tbaa !56
  store ptr %2, ptr %8, align 8, !tbaa !58
  store ptr %3, ptr %9, align 8, !tbaa !58
  store ptr %4, ptr %10, align 8, !tbaa !54
  %15 = load ptr, ptr %6, align 8
  call void @llvm.lifetime.start.p0(i64 4, ptr %11) #3
  call void @llvm.lifetime.start.p0(i64 4, ptr %12) #3
  call void @llvm.lifetime.start.p0(i64 4, ptr %13) #3
  %16 = load ptr, ptr %10, align 8, !tbaa !54
  store float 0x7FF0000000000000, ptr %16, align 4, !tbaa !8
  call void @llvm.lifetime.start.p0(i64 1, ptr %14) #3
  store i8 0, ptr %14, align 1, !tbaa !60
  store i32 0, ptr %12, align 4, !tbaa !18
  br label %17

17:                                               ; preds = %37, %5
  %18 = load i32, ptr %12, align 4, !tbaa !18
  %19 = icmp slt i32 %18, 8
  br i1 %19, label %20, label %40

20:                                               ; preds = %17
  %21 = load ptr, ptr %7, align 8, !tbaa !56
  %22 = load i32, ptr %12, align 4, !tbaa !18
  %23 = call noundef zeroext i1 @_ZN2cv3mcc11CChartModel5matchERKNS1_12_SUBCCMModelEiRfRi(ptr noundef nonnull align 8 dereferenceable(112) %15, ptr noundef nonnull align 8 dereferenceable(128) %21, i32 noundef %22, ptr noundef nonnull align 4 dereferenceable(4) %11, ptr noundef nonnull align 4 dereferenceable(4) %13)
  br i1 %23, label %24, label %36

24:                                               ; preds = %20
  %25 = load float, ptr %11, align 4, !tbaa !8
  %26 = load ptr, ptr %10, align 8, !tbaa !54
  %27 = load float, ptr %26, align 4, !tbaa !8
  %28 = fcmp olt float %25, %27
  br i1 %28, label %29, label %36

29:                                               ; preds = %24
  %30 = load float, ptr %11, align 4, !tbaa !8
  %31 = load ptr, ptr %10, align 8, !tbaa !54
  store float %30, ptr %31, align 4, !tbaa !8
  %32 = load i32, ptr %12, align 4, !tbaa !18
  %33 = load ptr, ptr %9, align 8, !tbaa !58
  store i32 %32, ptr %33, align 4, !tbaa !18
  %34 = load i32, ptr %13, align 4, !tbaa !18
  %35 = load ptr, ptr %8, align 8, !tbaa !58
  store i32 %34, ptr %35, align 4, !tbaa !18
  store i8 1, ptr %14, align 1, !tbaa !60
  br label %36

36:                                               ; preds = %29, %24, %20
  br label %37

37:                                               ; preds = %36
  %38 = load i32, ptr %12, align 4, !tbaa !18
  %39 = add nsw i32 %38, 1
  store i32 %39, ptr %12, align 4, !tbaa !18
  br label %17, !llvm.loop !62

40:                                               ; preds = %17
  %41 = load i8, ptr %14, align 1, !tbaa !60, !range !63, !noundef !64
  %42 = trunc i8 %41 to i1
  call void @llvm.lifetime.end.p0(i64 1, ptr %14) #3
  call void @llvm.lifetime.end.p0(i64 4, ptr %13) #3
  call void @llvm.lifetime.end.p0(i64 4, ptr %12) #3
  call void @llvm.lifetime.end.p0(i64 4, ptr %11) #3
  ret i1 %42
}