; Function Attrs: mustprogress uwtable
define hidden noundef zeroext i1 @_ZN2cv3mcc11CChartModel8evaluateERKNS1_12_SUBCCMModelERiS5_Rf(ptr noundef nonnull readonly align 8 captures(none) dereferenceable(112) %0, ptr noundef nonnull align 8 dereferenceable(128) %1, ptr noundef nonnull writeonly align 4 captures(none) dereferenceable(4) %2, ptr noundef nonnull writeonly align 4 captures(none) dereferenceable(4) %3, ptr noundef nonnull align 4 captures(none) dereferenceable(4) initializes((0, 4)) %4) local_unnamed_addr #4 align 2 {
  %6 = alloca float, align 4
  %7 = alloca i32, align 4
  call void @llvm.lifetime.start.p0(i64 4, ptr nonnull %6) #32
  call void @llvm.lifetime.start.p0(i64 4, ptr nonnull %7) #32
  store float 0x7FF0000000000000, ptr %4, align 4, !tbaa !30
  br label %8

8:                                                ; preds = %5, %16
  %.014 = phi i1 [ false, %5 ], [ %.1, %16 ]
  %.01113 = phi i32 [ 0, %5 ], [ %17, %16 ]
  %9 = call noundef zeroext i1 @_ZN2cv3mcc11CChartModel5matchERKNS1_12_SUBCCMModelEiRfRi(ptr noundef nonnull align 8 dereferenceable(112) %0, ptr noundef nonnull align 8 dereferenceable(128) %1, i32 noundef %.01113, ptr noundef nonnull align 4 dereferenceable(4) %6, ptr noundef nonnull align 4 dereferenceable(4) %7)
  br i1 %9, label %10, label %16

10:                                               ; preds = %8
  %11 = load float, ptr %6, align 4, !tbaa !30
  %12 = load float, ptr %4, align 4, !tbaa !30
  %13 = fcmp olt float %11, %12
  br i1 %13, label %14, label %16

14:                                               ; preds = %10
  store float %11, ptr %4, align 4, !tbaa !30
  store i32 %.01113, ptr %3, align 4, !tbaa !38
  %15 = load i32, ptr %7, align 4, !tbaa !38
  store i32 %15, ptr %2, align 4, !tbaa !38
  br label %16

16:                                               ; preds = %8, %10, %14
  %.1 = phi i1 [ true, %14 ], [ %.014, %10 ], [ %.014, %8 ]
  %17 = add nuw nsw i32 %.01113, 1
  %exitcond.not = icmp eq i32 %17, 8
  br i1 %exitcond.not, label %18, label %8, !llvm.loop !39

18:                                               ; preds = %16
  call void @llvm.lifetime.end.p0(i64 4, ptr nonnull %7) #32
  call void @llvm.lifetime.end.p0(i64 4, ptr nonnull %6) #32
  ret i1 %.1
}